; Function Attrs: mustprogress nounwind uwtable
define dso_local void @_ZN4llvm14MachineOperand6setRegENS_8RegisterE(ptr noundef nonnull align 8 dereferenceable(32) %0, i32 %1) local_unnamed_addr #0 align 2 {
  %3 = getelementptr inbounds nuw i8, ptr %0, i64 4
  %4 = load i32, ptr %3, align 4
  %5 = icmp eq i32 %4, %1
  br i1 %5, label %19, label %6

6:                                                ; preds = %2
  %7 = load i32, ptr %0, align 8
  %8 = and i32 %7, -134217729
  store i32 %8, ptr %0, align 8
  %9 = getelementptr inbounds nuw i8, ptr %0, i64 8
  %.val = load ptr, ptr %9, align 8
  %.not.i.i = icmp eq ptr %.val, null
  br i1 %.not.i.i, label %18, label %10

10:                                               ; preds = %6
  %11 = getelementptr inbounds nuw i8, ptr %.val, i64 24
  %12 = load ptr, ptr %11, align 8
  %.not11.i.i = icmp eq ptr %12, null
  br i1 %.not11.i.i, label %18, label %13

13:                                               ; preds = %10
  %14 = getelementptr inbounds nuw i8, ptr %12, i64 32
  %15 = load ptr, ptr %14, align 8
  %.not12.i.i = icmp eq ptr %15, null
  br i1 %.not12.i.i, label %18, label %_ZL16getMFIfAvailableRN4llvm14MachineOperandE.exit

_ZL16getMFIfAvailableRN4llvm14MachineOperandE.exit: ; preds = %13
  %16 = getelementptr inbounds nuw i8, ptr %15, i64 32
  %17 = load ptr, ptr %16, align 8
  tail call void @_ZN4llvm19MachineRegisterInfo27removeRegOperandFromUseListEPNS_14MachineOperandE(ptr noundef nonnull align 8 dereferenceable(512) %17, ptr noundef nonnull %0) #21
  store i32 %1, ptr %3, align 4
  tail call void @_ZN4llvm19MachineRegisterInfo22addRegOperandToUseListEPNS_14MachineOperandE(ptr noundef nonnull align 8 dereferenceable(512) %17, ptr noundef nonnull %0) #21
  br label %19

18:                                               ; preds = %6, %10, %13
  store i32 %1, ptr %3, align 4
  br label %19

19:                                               ; preds = %2, %18, %_ZL16getMFIfAvailableRN4llvm14MachineOperandE.exit
  ret void
}